; Function Attrs: mustprogress nounwind uwtable
define noundef i32 @_ZN6Assimp13ObjFileParser16getMaterialIndexERKNSt7__cxx1112basic_stringIcSt11char_traitsIcESaIcEEE(ptr nocapture noundef nonnull readonly align 8 dereferenceable(4176) %this, ptr noundef nonnull align 8 dereferenceable(32) %strMaterialName) local_unnamed_addr #0 align 2 personality ptr @__gxx_personality_v0 {
entry:
  %call = tail call noundef zeroext i1 @_ZNKSt7__cxx1112basic_stringIcSt11char_traitsIcESaIcEE5emptyEv(ptr noundef nonnull align 8 dereferenceable(32) %strMaterialName) #21
  br i1 %call, label %return, label %for.cond.preheader

for.cond.preheader:                               ; preds = %entry
  %m_pModel = getelementptr inbounds i8, ptr %this, i64 16
  %0 = load ptr, ptr %m_pModel, align 8
  %mMaterialLib8 = getelementptr inbounds i8, ptr %0, i64 80
  %_M_finish.i9 = getelementptr inbounds i8, ptr %0, i64 88
  %1 = load ptr, ptr %_M_finish.i9, align 8
  %2 = load ptr, ptr %mMaterialLib8, align 8
  %cmp14.not = icmp eq ptr %1, %2
  br i1 %cmp14.not, label %return, label %for.body

for.body:                                         ; preds = %for.cond.preheader, %for.inc
  %3 = phi ptr [ %7, %for.inc ], [ %2, %for.cond.preheader ]
  %index.015 = phi i64 [ %inc, %for.inc ], [ 0, %for.cond.preheader ]
  %add.ptr.i = getelementptr inbounds %"class.std::__cxx11::basic_string", ptr %3, i64 %index.015
  %call.i = tail call noundef i64 @_ZNKSt7__cxx1112basic_stringIcSt11char_traitsIcESaIcEE4sizeEv(ptr noundef nonnull align 8 dereferenceable(32) %strMaterialName) #21
  %call1.i = tail call noundef i64 @_ZNKSt7__cxx1112basic_stringIcSt11char_traitsIcESaIcEE4sizeEv(ptr noundef nonnull align 8 dereferenceable(32) %add.ptr.i) #21
  %cmp.i = icmp eq i64 %call.i, %call1.i
  br i1 %cmp.i, label %land.rhs.i, label %for.inc

land.rhs.i:                                       ; preds = %for.body
  %call2.i = tail call noundef ptr @_ZNKSt7__cxx1112basic_stringIcSt11char_traitsIcESaIcEE4dataEv(ptr noundef nonnull align 8 dereferenceable(32) %strMaterialName) #21
  %call3.i = tail call noundef ptr @_ZNKSt7__cxx1112basic_stringIcSt11char_traitsIcESaIcEE4dataEv(ptr noundef nonnull align 8 dereferenceable(32) %add.ptr.i) #21
  %call4.i = tail call noundef i64 @_ZNKSt7__cxx1112basic_stringIcSt11char_traitsIcESaIcEE4sizeEv(ptr noundef nonnull align 8 dereferenceable(32) %strMaterialName) #21
  %cmp.i.i = icmp eq i64 %call4.i, 0
  br i1 %cmp.i.i, label %if.then9, label %_ZSteqIcEN9__gnu_cxx11__enable_ifIXsr9__is_charIT_EE7__valueEbE6__typeERKNSt7__cxx1112basic_stringIS2_St11char_traitsIS2_ESaIS2_EEESC_.exit

_ZSteqIcEN9__gnu_cxx11__enable_ifIXsr9__is_charIT_EE7__valueEbE6__typeERKNSt7__cxx1112basic_stringIS2_St11char_traitsIS2_ESaIS2_EEESC_.exit: ; preds = %land.rhs.i
  %bcmp.i = tail call i32 @bcmp(ptr %call2.i, ptr %call3.i, i64 %call4.i)
  %4 = icmp eq i32 %bcmp.i, 0
  br i1 %4, label %if.then9, label %for.inc

if.then9:                                         ; preds = %land.rhs.i, %_ZSteqIcEN9__gnu_cxx11__enable_ifIXsr9__is_charIT_EE7__valueEbE6__typeERKNSt7__cxx1112basic_stringIS2_St11char_traitsIS2_ESaIS2_EEESC_.exit
  %conv = trunc i64 %index.015 to i32
  br label %return

for.inc:                                          ; preds = %for.body, %_ZSteqIcEN9__gnu_cxx11__enable_ifIXsr9__is_charIT_EE7__valueEbE6__typeERKNSt7__cxx1112basic_stringIS2_St11char_traitsIS2_ESaIS2_EEESC_.exit
  %inc = add nuw i64 %index.015, 1
  %5 = load ptr, ptr %m_pModel, align 8
  %mMaterialLib = getelementptr inbounds i8, ptr %5, i64 80
  %_M_finish.i = getelementptr inbounds i8, ptr %5, i64 88
  %6 = load ptr, ptr %_M_finish.i, align 8
  %7 = load ptr, ptr %mMaterialLib, align 8
  %sub.ptr.lhs.cast.i = ptrtoint ptr %6 to i64
  %sub.ptr.rhs.cast.i = ptrtoint ptr %7 to i64
  %sub.ptr.sub.i = sub i64 %sub.ptr.lhs.cast.i, %sub.ptr.rhs.cast.i
  %sub.ptr.div.i = ashr exact i64 %sub.ptr.sub.i, 5
  %cmp = icmp ult i64 %inc, %sub.ptr.div.i
  br i1 %cmp, label %for.body, label %return, !llvm.loop !59

return:                                           ; preds = %for.inc, %for.cond.preheader, %if.then9, %entry
  %retval.0 = phi i32 [ -1, %entry ], [ %conv, %if.then9 ], [ -1, %for.cond.preheader ], [ -1, %for.inc ]
  ret i32 %retval.0
}